000000000046cd30 <BloombergLP::balcl::(anonymous namespace)::u::ScalarConstraint<bsl::basic_stri   |	000000000046c7a0 <BloombergLP::balcl::(anonymous namespace)::u::ScalarConstraint<bsl::basic_stri
0000000000000000: 01	pushq	%rbp									0000000000000000: 01	pushq	%rbp
0000000000000001: 02	pushq	%r15									0000000000000001: 02	pushq	%r15
0000000000000003: 02	pushq	%r14									0000000000000003: 02	pushq	%r14
0000000000000005: 02	pushq	%r13									0000000000000005: 02	pushq	%r13
0000000000000007: 02	pushq	%r12									0000000000000007: 02	pushq	%r12
0000000000000009: 01	pushq	%rbx									0000000000000009: 01	pushq	%rbx
000000000000000a: 04	subq	$56, %rsp								000000000000000a: 04	subq	$56, %rsp
000000000000000e: 03	movq	%rcx, %r13								000000000000000e: 03	movq	%rcx, %r13
0000000000000011: 03	movq	%rdx, %r14								0000000000000011: 03	movq	%rdx, %r14
0000000000000014: 03	movq	%rsi, %rbx								0000000000000014: 03	movq	%rsi, %rbx
0000000000000017: 03	movq	%rdi, %r15								0000000000000017: 03	movq	%rdi, %r15
000000000000001a: 03	movq	%rsi, %rdi								000000000000001a: 03	movq	%rsi, %rdi
000000000000001d: 05	callq	0x465e70 <BloombergLP::balcl::OptionValue::type() const>	   |	000000000000001d: 05	callq	0x465850 <BloombergLP::balcl::OptionValue::type() const>
0000000000000022: 09	movq	$0, 8(%rsp)							   |	0000000000000022: 02	movl	%eax, %ebp
000000000000002b: 07	movaps	226158(%rip), %xmm0  # 4a40d0 <__dso_handle+0x8>		   |	0000000000000024: 09	movq	$0, 8(%rsp)
0000000000000032: 05	movups	%xmm0, 32(%rsp)							   |	000000000000002d: 07	movaps	228412(%rip), %xmm0  # 4a4410 <__dso_handle+0x8>
0000000000000037: 07	movq	2719418(%rip), %rax  # 704c28 <BloombergLP::bslma::Default::s_de   |	0000000000000034: 05	movups	%xmm0, 32(%rsp)
000000000000003e: 03	testq	%rax, %rax							   |	0000000000000039: 07	movq	2724936(%rip), %rax  # 705c28 <BloombergLP::bslma::Default::s_de
0000000000000041: 02	je	0x46cd7f <BloombergLP::balcl::(anonymous namespace)::u::ScalarCo   |	0000000000000040: 03	testq	%rax, %rax
0000000000000043: 05	leaq	8(%rsp), %rcx							   |	0000000000000043: 02	je	0x46c7f1 <BloombergLP::balcl::(anonymous namespace)::u::ScalarCo
0000000000000048: 05	movq	%rax, 48(%rsp)							   |	0000000000000045: 05	leaq	8(%rsp), %rcx
000000000000004d: 02	jmp	0x46cd9d <BloombergLP::balcl::(anonymous namespace)::u::ScalarCo   |	000000000000004a: 05	movq	%rax, 48(%rsp)
000000000000004f: 05	callq	0x47cad0 <BloombergLP::bslma::Default::determineAndReturnDefault   |	000000000000004f: 02	jmp	0x46c80f <BloombergLP::balcl::(anonymous namespace)::u::ScalarCo
0000000000000054: 06	cmpq	$23, 40(%rsp)							   |	0000000000000051: 05	callq	0x47ce20 <BloombergLP::bslma::Default::determineAndReturnDefault
000000000000005a: 05	movq	%rax, 48(%rsp)							   |	0000000000000056: 06	cmpq	$23, 40(%rsp)
000000000000005f: 02	je	0x46cd98 <BloombergLP::balcl::(anonymous namespace)::u::ScalarCo   |	000000000000005c: 05	movq	%rax, 48(%rsp)
0000000000000061: 05	movq	8(%rsp), %rcx							   |	0000000000000061: 02	je	0x46c80a <BloombergLP::balcl::(anonymous namespace)::u::ScalarCo
0000000000000066: 02	jmp	0x46cd9d <BloombergLP::balcl::(anonymous namespace)::u::ScalarCo   |	0000000000000063: 05	movq	8(%rsp), %rcx
0000000000000068: 05	leaq	8(%rsp), %rcx							   |	0000000000000068: 02	jmp	0x46c80f <BloombergLP::balcl::(anonymous namespace)::u::ScalarCo
000000000000006d: 03	movb	$0, (%rcx)							   |	000000000000006a: 05	leaq	8(%rsp), %rcx
0000000000000070: 05	cmpq	$23, 32(%r13)							   |	000000000000006f: 03	movb	$0, (%rcx)
0000000000000075: 02	je	0x46cdab <BloombergLP::balcl::(anonymous namespace)::u::ScalarCo   |	0000000000000072: 05	cmpq	$23, 32(%r13)
0000000000000077: 04	movq	(%r13), %r13							   |	0000000000000077: 03	movq	%r13, %rsi
000000000000007b: 03	movq	%r13, %rdi							   |	000000000000007a: 02	je	0x46c820 <BloombergLP::balcl::(anonymous namespace)::u::ScalarCo
000000000000007e: 05	callq	0x4046c0 <strlen@plt>						   |	000000000000007c: 04	movq	(%r13), %rsi
0000000000000083: 05	movq	32(%rsp), %rbp							   |	0000000000000080: 05	leaq	8(%rsp), %r12
0000000000000088: 09	movq	$0, 32(%rsp)							   |	0000000000000085: 03	movq	%r12, %rdi
0000000000000091: 05	leaq	8(%rsp), %r12							   |	0000000000000088: 02	movl	%ebp, %edx
0000000000000096: 05	movl	$4908446, %ecx							   |	000000000000008a: 05	callq	0x46ff90 <BloombergLP::balcl::(anonymous namespace)::u::parseVal
000000000000009b: 03	movq	%r12, %rdi							   |	000000000000008f: 02	testb	%al, %al
000000000000009e: 03	movq	%r13, %rsi							   |	0000000000000091: 06	je	0x46c926 <BloombergLP::balcl::(anonymous namespace)::u::ScalarCo
00000000000000a1: 03	movq	%rax, %rdx							   |	0000000000000097: 04	movq	56(%rbx), %rbp
00000000000000a4: 05	callq	0x481b20 <bsl::basic_string<char, std::__1::char_traits<char>, b   |	000000000000009b: 04	cmpb	$0, 48(%rbx)
00000000000000a9: 04	movq	56(%rbx), %r13							   |	000000000000009f: 02	je	0x46c861 <BloombergLP::balcl::(anonymous namespace)::u::ScalarCo
00000000000000ad: 04	cmpb	$0, 48(%rbx)							   |	00000000000000a1: 04	movb	$0, 48(%rbx)
00000000000000b1: 02	je	0x46ce03 <BloombergLP::balcl::(anonymous namespace)::u::ScalarCo   |	00000000000000a5: 05	cmpq	$23, 32(%rbx)
00000000000000b3: 04	movb	$0, 48(%rbx)							   |	00000000000000aa: 02	je	0x46c859 <BloombergLP::balcl::(anonymous namespace)::u::ScalarCo
00000000000000b7: 05	cmpq	$23, 32(%rbx)							   |	00000000000000ac: 03	movq	(%rbx), %rsi
00000000000000bc: 02	je	0x46cdfb <BloombergLP::balcl::(anonymous namespace)::u::ScalarCo   |	00000000000000af: 04	movq	40(%rbx), %rdi
00000000000000be: 03	movq	(%rbx), %rsi							   |	00000000000000b3: 03	movq	(%rdi), %rax
00000000000000c1: 04	movq	40(%rbx), %rdi							   |	00000000000000b6: 03	callq	*24(%rax)
00000000000000c5: 03	movq	(%rdi), %rax							   |	00000000000000b9: 08	movq	$-1, 24(%rbx)
00000000000000c8: 03	callq	*24(%rax)							   |	00000000000000c1: 03	testq	%rbp, %rbp
00000000000000cb: 08	movq	$-1, 24(%rbx)							   |	00000000000000c4: 02	jne	0x46c87a <BloombergLP::balcl::(anonymous namespace)::u::ScalarCo
00000000000000d3: 03	testq	%r13, %r13							   |	00000000000000c6: 07	movq	2724795(%rip), %rbp  # 705c28 <BloombergLP::bslma::Default::s_de
00000000000000d6: 02	jne	0x46ce1c <BloombergLP::balcl::(anonymous namespace)::u::ScalarCo   |	00000000000000cd: 03	testq	%rbp, %rbp
00000000000000d8: 07	movq	2719257(%rip), %r13  # 704c28 <BloombergLP::bslma::Default::s_de   |	00000000000000d0: 02	jne	0x46c87a <BloombergLP::balcl::(anonymous namespace)::u::ScalarCo
00000000000000df: 03	testq	%r13, %r13							   |	00000000000000d2: 05	callq	0x47ce20 <BloombergLP::bslma::Default::determineAndReturnDefault
00000000000000e2: 02	jne	0x46ce1c <BloombergLP::balcl::(anonymous namespace)::u::ScalarCo   |	00000000000000d7: 03	movq	%rax, %rbp
00000000000000e4: 05	callq	0x47cad0 <BloombergLP::bslma::Default::determineAndReturnDefault   |	00000000000000da: 05	movq	40(%rsp), %rax
00000000000000e9: 03	movq	%rax, %r13							   |	00000000000000df: 04	movq	%rax, 32(%rbx)
00000000000000ec: 05	movq	40(%rsp), %rax							   |	00000000000000e3: 05	movups	8(%rsp), %xmm0
00000000000000f1: 04	movq	%rax, 32(%rbx)							   |	00000000000000e8: 05	movups	24(%rsp), %xmm1
00000000000000f5: 05	movups	8(%rsp), %xmm0							   |	00000000000000ed: 04	movups	%xmm1, 16(%rbx)
00000000000000fa: 05	movups	24(%rsp), %xmm1							   |	00000000000000f1: 03	movups	%xmm0, (%rbx)
00000000000000ff: 04	movups	%xmm1, 16(%rbx)							   |	00000000000000f4: 04	movq	%rbp, 40(%rbx)
0000000000000103: 03	movups	%xmm0, (%rbx)							   |	00000000000000f8: 04	cmpq	$23, %rax
0000000000000106: 04	movq	%r13, 40(%rbx)							   |	00000000000000fc: 02	je	0x46c900 <BloombergLP::balcl::(anonymous namespace)::u::ScalarCo
000000000000010a: 04	cmpq	$23, %rax							   |	00000000000000fe: 05	movq	32(%rsp), %rax
000000000000010e: 02	je	0x46cea2 <BloombergLP::balcl::(anonymous namespace)::u::ScalarCo   |	0000000000000103: 04	cmpq	$23, %rax
0000000000000110: 05	movq	32(%rsp), %rax							   |	0000000000000107: 05	movl	$23, %esi
0000000000000115: 04	cmpq	$23, %rax							   |	000000000000010c: 04	cmovaq	%rax, %rsi
0000000000000119: 05	movl	$23, %esi							   |	0000000000000110: 07	movq	$0, (%rbx)
000000000000011e: 04	cmovaq	%rax, %rsi							   |	0000000000000117: 04	movq	%rax, 24(%rbx)
0000000000000122: 07	movq	$0, (%rbx)							   |	000000000000011b: 04	movq	%rsi, 32(%rbx)
0000000000000129: 04	movq	%rax, 24(%rbx)							   |	000000000000011f: 04	cmpq	$24, %rax
000000000000012d: 04	movq	%rsi, 32(%rbx)							   |	0000000000000123: 02	jb	0x46c8dc <BloombergLP::balcl::(anonymous namespace)::u::ScalarCo
0000000000000131: 04	cmpq	$24, %rax							   |	0000000000000125: 03	incq	%rsi
0000000000000135: 02	jb	0x46ce7e <BloombergLP::balcl::(anonymous namespace)::u::ScalarCo   |	0000000000000128: 04	movq	(%rbp), %rax
0000000000000137: 03	incq	%rsi								   |	000000000000012c: 03	movq	%rbp, %rdi
000000000000013a: 04	movq	(%r13), %rax							   |	000000000000012f: 03	callq	*16(%rax)
000000000000013e: 03	movq	%r13, %rdi							   |	0000000000000132: 03	movq	%rax, (%rbx)
0000000000000141: 03	callq	*16(%rax)							   |	0000000000000135: 05	cmpq	$23, 32(%rbx)
0000000000000144: 03	movq	%rax, (%rbx)							   |	000000000000013a: 02	jne	0x46c8df <BloombergLP::balcl::(anonymous namespace)::u::ScalarCo
0000000000000147: 05	cmpq	$23, 32(%rbx)							   |	000000000000013c: 03	movq	%rbx, %rax
000000000000014c: 02	jne	0x46ce81 <BloombergLP::balcl::(anonymous namespace)::u::ScalarCo   |	000000000000013f: 04	movq	24(%rbx), %rdx
000000000000014e: 03	movq	%rbx, %rax							   |	0000000000000143: 03	incq	%rdx
0000000000000151: 04	movq	24(%rbx), %rdx							   |	0000000000000146: 02	je	0x46c900 <BloombergLP::balcl::(anonymous namespace)::u::ScalarCo
0000000000000155: 03	incq	%rdx								   |	0000000000000148: 06	cmpq	$23, 40(%rsp)
0000000000000158: 02	je	0x46cea2 <BloombergLP::balcl::(anonymous namespace)::u::ScalarCo   |	000000000000014e: 02	je	0x46c8f5 <BloombergLP::balcl::(anonymous namespace)::u::ScalarCo
000000000000015a: 06	cmpq	$23, 40(%rsp)							   |	0000000000000150: 05	movq	8(%rsp), %r12
0000000000000160: 02	je	0x46ce97 <BloombergLP::balcl::(anonymous namespace)::u::ScalarCo   |	0000000000000155: 03	movq	%rax, %rdi
0000000000000162: 05	movq	8(%rsp), %r12							   |	0000000000000158: 03	movq	%r12, %rsi
0000000000000167: 03	movq	%rax, %rdi							   |	000000000000015b: 05	callq	0x404c70 <memcpy@plt>
000000000000016a: 03	movq	%r12, %rsi							   |	0000000000000160: 04	movb	$1, 48(%rbx)
000000000000016d: 05	callq	0x404c70 <memcpy@plt>						   |	0000000000000164: 03	movq	(%r15), %rax
0000000000000172: 04	movb	$1, 48(%rbx)							   |	0000000000000167: 03	movq	%r15, %rdi
0000000000000176: 03	movq	(%r15), %rax							   |	000000000000016a: 03	movq	%rbx, %rsi
0000000000000179: 03	movq	%r15, %rdi							   |	000000000000016d: 03	movq	%r14, %rdx
000000000000017c: 03	movq	%rbx, %rsi							   |	0000000000000170: 03	callq	*40(%rax)
000000000000017f: 03	movq	%r14, %rdx							   |	0000000000000173: 02	movl	%eax, %ebx
0000000000000182: 03	callq	*40(%rax)							   |	0000000000000175: 06	cmpq	$23, 40(%rsp)
0000000000000185: 02	movl	%eax, %ebx							   |	000000000000017b: 06	jne	0x46c9ac <BloombergLP::balcl::(anonymous namespace)::u::ScalarCo
0000000000000187: 06	cmpq	$23, 40(%rsp)							   |	0000000000000181: 05	jmp	0x46c9bc <BloombergLP::balcl::(anonymous namespace)::u::ScalarCo
000000000000018d: 02	je	0x46cecf <BloombergLP::balcl::(anonymous namespace)::u::ScalarCo   |	0000000000000186: 03	addl	$-2, %ebp
000000000000018f: 05	movq	8(%rsp), %rsi							   |	0000000000000189: 05	movl	$4931911, %ebx
0000000000000194: 05	movq	48(%rsp), %rdi							   |	000000000000018e: 03	cmpl	$7, %ebp
0000000000000199: 03	movq	(%rdi), %rax							   |	0000000000000191: 02	ja	0x46c93e <BloombergLP::balcl::(anonymous namespace)::u::ScalarCo
000000000000019c: 03	callq	*24(%rax)							   |	0000000000000193: 03	movslq	%ebp, %rax
000000000000019f: 02	movl	%ebx, %eax							   |	0000000000000196: 08	movq	4931624(,%rax,8), %rbx
00000000000001a1: 04	addq	$56, %rsp							   |	000000000000019e: 03	movq	%rbx, %rdi
00000000000001a5: 01	popq	%rbx								   |	00000000000001a1: 05	callq	0x4046c0 <strlen@plt>
00000000000001a6: 02	popq	%r12								   |	00000000000001a6: 03	movq	%r14, %rdi
00000000000001a8: 02	popq	%r13								   |	00000000000001a9: 03	movq	%rbx, %rsi
00000000000001aa: 02	popq	%r14								   |	00000000000001ac: 03	movq	%rax, %rdx
00000000000001ac: 02	popq	%r15								   |	00000000000001af: 05	callq	0x455480 <std::__1::basic_ostream<char, std::__1::char_traits<ch
00000000000001ae: 01	popq	%rbp								   |	00000000000001b4: 05	movl	$4931773, %esi
00000000000001af: 01	retq									   |	00000000000001b9: 05	movl	$33, %edx
00000000000001b0: 03	movq	%rax, %rdi							   |	00000000000001be: 03	movq	%rax, %rdi
00000000000001b3: 05	callq	0x451530 <__clang_call_terminate>				   |	00000000000001c1: 05	callq	0x455480 <std::__1::basic_ostream<char, std::__1::char_traits<ch
00000000000001b8: 03	movq	%rax, %rdi							   |	00000000000001c6: 03	movq	%rax, %rdi
00000000000001bb: 05	callq	0x451530 <__clang_call_terminate>				   |	00000000000001c9: 03	movq	%r13, %rsi
00000000000001c0: 03	movq	%rax, %rdi							   |	00000000000001cc: 05	callq	0x44f6f0 <std::__1::basic_ostream<char, std::__1::char_traits<ch
00000000000001c3: 05	callq	0x451530 <__clang_call_terminate>				   |	00000000000001d1: 05	movl	$4915277, %esi
00000000000001c8: 03	movq	%rax, %rbx							   |	00000000000001d6: 05	movl	$1, %edx
00000000000001cb: 05	movq	%rbp, 32(%rsp)							   |	00000000000001db: 03	movq	%rax, %rdi
00000000000001d0: 02	jmp	0x46cf05 <BloombergLP::balcl::(anonymous namespace)::u::ScalarCo   |	00000000000001de: 05	callq	0x455480 <std::__1::basic_ostream<char, std::__1::char_traits<ch
00000000000001d2: 03	movq	%rax, %rbx							   |	00000000000001e3: 05	movb	$10, 7(%rsp)
00000000000001d5: 06	cmpq	$23, 40(%rsp)							   |	00000000000001e8: 05	leaq	7(%rsp), %rsi
00000000000001db: 02	je	0x46cf1d <BloombergLP::balcl::(anonymous namespace)::u::ScalarCo   |	00000000000001ed: 05	movl	$1, %edx
00000000000001dd: 05	movq	8(%rsp), %rsi							   |	00000000000001f2: 03	movq	%rax, %rdi
00000000000001e2: 05	movq	48(%rsp), %rdi							   |	00000000000001f5: 05	callq	0x455480 <std::__1::basic_ostream<char, std::__1::char_traits<ch
00000000000001e7: 03	movq	(%rdi), %rax							   |	00000000000001fa: 03	movq	%rax, %rdi
00000000000001ea: 03	callq	*24(%rax)							   |	00000000000001fd: 05	callq	0x404980 <_ZNSt3__113basic_ostreamIcNS_11char_traitsIcEEE5flushE
00000000000001ed: 03	movq	%rbx, %rdi							   |	0000000000000202: 02	xorl	%ebx, %ebx
00000000000001f0: 05	callq	0x404c00 <_Unwind_Resume@plt>					   |	0000000000000204: 06	cmpq	$23, 40(%rsp)
00000000000001f5: 03	movq	%rax, %rdi							   |	000000000000020a: 02	je	0x46c9bc <BloombergLP::balcl::(anonymous namespace)::u::ScalarCo
00000000000001f8: 05	callq	0x451530 <__clang_call_terminate>				   |	000000000000020c: 05	movq	8(%rsp), %rsi
00000000000001fd: 03	nopl	(%rax)								   |	0000000000000211: 05	movq	48(%rsp), %rdi
												   >	0000000000000216: 03	movq	(%rdi), %rax
												   >	0000000000000219: 03	callq	*24(%rax)
												   >	000000000000021c: 02	movl	%ebx, %eax
												   >	000000000000021e: 04	addq	$56, %rsp
												   >	0000000000000222: 01	popq	%rbx
												   >	0000000000000223: 02	popq	%r12
												   >	0000000000000225: 02	popq	%r13
												   >	0000000000000227: 02	popq	%r14
												   >	0000000000000229: 02	popq	%r15
												   >	000000000000022b: 01	popq	%rbp
												   >	000000000000022c: 01	retq	
												   >	000000000000022d: 03	movq	%rax, %rdi
												   >	0000000000000230: 05	callq	0x450f10 <__clang_call_terminate>
												   >	0000000000000235: 03	movq	%rax, %rdi
												   >	0000000000000238: 05	callq	0x450f10 <__clang_call_terminate>
												   >	000000000000023d: 03	movq	%rax, %rdi
												   >	0000000000000240: 05	callq	0x450f10 <__clang_call_terminate>
												   >	0000000000000245: 03	movq	%rax, %rbx
												   >	0000000000000248: 06	cmpq	$23, 40(%rsp)
												   >	000000000000024e: 02	je	0x46ca00 <BloombergLP::balcl::(anonymous namespace)::u::ScalarCo
												   >	0000000000000250: 05	movq	8(%rsp), %rsi
												   >	0000000000000255: 05	movq	48(%rsp), %rdi
												   >	000000000000025a: 03	movq	(%rdi), %rax
												   >	000000000000025d: 03	callq	*24(%rax)
												   >	0000000000000260: 03	movq	%rbx, %rdi
												   >	0000000000000263: 05	callq	0x404c00 <_Unwind_Resume@plt>
												   >	0000000000000268: 03	movq	%rax, %rdi
												   >	000000000000026b: 05	callq	0x450f10 <__clang_call_terminate>
