000000000046eee0 <BloombergLP::balcl::(anonymous namespace)::u::ArrayConstraint<bsl::basic_strin   |	000000000046eab0 <BloombergLP::balcl::(anonymous namespace)::u::ArrayConstraint<bsl::basic_strin
0000000000000000: 02	pushq	%r15								   |	0000000000000000: 01	pushq	%rbp
0000000000000002: 02	pushq	%r14								   |	0000000000000001: 02	pushq	%r15
0000000000000004: 02	pushq	%r13								   |	0000000000000003: 02	pushq	%r14
0000000000000006: 02	pushq	%r12								   |	0000000000000005: 02	pushq	%r13
0000000000000008: 01	pushq	%rbx								   |	0000000000000007: 02	pushq	%r12
0000000000000009: 04	subq	$48, %rsp							   |	0000000000000009: 01	pushq	%rbx
000000000000000d: 03	movq	%rcx, %rbx							   |	000000000000000a: 04	subq	$56, %rsp
0000000000000010: 03	movq	%rdx, %r14							   |	000000000000000e: 03	movq	%rcx, %r13
0000000000000013: 03	movq	%rsi, %r15							   |	0000000000000011: 03	movq	%rdx, %r15
0000000000000016: 03	movq	%rdi, %r12							   |	0000000000000014: 03	movq	%rsi, %r14
0000000000000019: 03	movq	%rsi, %rdi							   |	0000000000000017: 03	movq	%rdi, %r12
000000000000001c: 05	callq	0x465e70 <BloombergLP::balcl::OptionValue::type() const>	   |	000000000000001a: 03	movq	%rsi, %rdi
0000000000000021: 08	movq	$0, (%rsp)							   |	000000000000001d: 05	callq	0x465850 <BloombergLP::balcl::OptionValue::type() const>
0000000000000029: 07	movaps	217536(%rip), %xmm0  # 4a40d0 <__dso_handle+0x8>		   |	0000000000000022: 03	leal	-8(%rax), %ecx
0000000000000030: 05	movups	%xmm0, 24(%rsp)							   |	0000000000000025: 02	xorl	%ebp, %ebp
0000000000000035: 07	movq	2710796(%rip), %rax  # 704c28 <BloombergLP::bslma::Default::s_de   |	0000000000000027: 03	cmpl	$10, %eax
000000000000003c: 03	testq	%rax, %rax							   |	000000000000002a: 03	cmovgel	%ecx, %ebp
000000000000003f: 02	je	0x46ef2b <BloombergLP::balcl::(anonymous namespace)::u::ArrayCon   |	000000000000002d: 09	movq	$0, 8(%rsp)
0000000000000041: 03	movq	%rsp, %rcx							   |	0000000000000036: 07	movaps	219427(%rip), %xmm0  # 4a4410 <__dso_handle+0x8>
0000000000000044: 05	movq	%rax, 40(%rsp)							   |	000000000000003d: 05	movups	%xmm0, 32(%rsp)
0000000000000049: 02	jmp	0x46ef46 <BloombergLP::balcl::(anonymous namespace)::u::ArrayCon   |	0000000000000042: 07	movq	2715951(%rip), %rax  # 705c28 <BloombergLP::bslma::Default::s_de
000000000000004b: 05	callq	0x47cad0 <BloombergLP::bslma::Default::determineAndReturnDefault   |	0000000000000049: 03	testq	%rax, %rax
0000000000000050: 06	cmpq	$23, 32(%rsp)							   |	000000000000004c: 02	je	0x46eb0a <BloombergLP::balcl::(anonymous namespace)::u::ArrayCon
0000000000000056: 05	movq	%rax, 40(%rsp)							   |	000000000000004e: 05	leaq	8(%rsp), %rcx
000000000000005b: 02	je	0x46ef43 <BloombergLP::balcl::(anonymous namespace)::u::ArrayCon   |	0000000000000053: 05	movq	%rax, 48(%rsp)
000000000000005d: 04	movq	(%rsp), %rcx							   |	0000000000000058: 02	jmp	0x46eb28 <BloombergLP::balcl::(anonymous namespace)::u::ArrayCon
0000000000000061: 02	jmp	0x46ef46 <BloombergLP::balcl::(anonymous namespace)::u::ArrayCon   |	000000000000005a: 05	callq	0x47ce20 <BloombergLP::bslma::Default::determineAndReturnDefault
0000000000000063: 03	movq	%rsp, %rcx							   |	000000000000005f: 06	cmpq	$23, 40(%rsp)
0000000000000066: 03	movb	$0, (%rcx)							   |	0000000000000065: 05	movq	%rax, 48(%rsp)
0000000000000069: 05	cmpq	$23, 32(%rbx)							   |	000000000000006a: 02	je	0x46eb23 <BloombergLP::balcl::(anonymous namespace)::u::ArrayCon
000000000000006e: 02	je	0x46ef53 <BloombergLP::balcl::(anonymous namespace)::u::ArrayCon   |	000000000000006c: 05	movq	8(%rsp), %rcx
0000000000000070: 03	movq	(%rbx), %rbx							   |	0000000000000071: 02	jmp	0x46eb28 <BloombergLP::balcl::(anonymous namespace)::u::ArrayCon
0000000000000073: 03	movq	%rbx, %rdi							   |	0000000000000073: 05	leaq	8(%rsp), %rcx
0000000000000076: 05	callq	0x4046c0 <strlen@plt>						   |	0000000000000078: 03	movb	$0, (%rcx)
000000000000007b: 05	movq	24(%rsp), %r13							   |	000000000000007b: 05	cmpq	$23, 32(%r13)
0000000000000080: 09	movq	$0, 24(%rsp)							   |	0000000000000080: 03	movq	%r13, %rsi
0000000000000089: 03	movq	%rsp, %rdi							   |	0000000000000083: 02	je	0x46eb39 <BloombergLP::balcl::(anonymous namespace)::u::ArrayCon
000000000000008c: 05	movl	$4908446, %ecx							   |	0000000000000085: 04	movq	(%r13), %rsi
0000000000000091: 03	movq	%rbx, %rsi							   |	0000000000000089: 05	leaq	8(%rsp), %rdi
0000000000000094: 03	movq	%rax, %rdx							   |	000000000000008e: 02	movl	%ebp, %edx
0000000000000097: 05	callq	0x481b20 <bsl::basic_string<char, std::__1::char_traits<char>, b   |	0000000000000090: 05	callq	0x46ff90 <BloombergLP::balcl::(anonymous namespace)::u::parseVal
000000000000009c: 05	movq	80(%r12), %rax							   |	0000000000000095: 02	testb	%al, %al
00000000000000a1: 03	testq	%rax, %rax							   |	0000000000000097: 02	je	0x46eb94 <BloombergLP::balcl::(anonymous namespace)::u::ArrayCon
00000000000000a4: 02	je	0x46ef99 <BloombergLP::balcl::(anonymous namespace)::u::ArrayCon   |	0000000000000099: 05	movq	80(%r12), %rax
00000000000000a6: 04	addq	$16, %r12							   |	000000000000009e: 03	testq	%rax, %rax
00000000000000aa: 03	movq	%rsp, %rsi							   |	00000000000000a1: 02	je	0x46eb6c <BloombergLP::balcl::(anonymous namespace)::u::ArrayCon
00000000000000ad: 03	movq	%r12, %rdi							   |	00000000000000a3: 04	addq	$16, %r12
00000000000000b0: 03	movq	%r14, %rdx							   |	00000000000000a7: 05	leaq	8(%rsp), %rsi
00000000000000b3: 02	callq	*%rax								   |	00000000000000ac: 03	movq	%r12, %rdi
00000000000000b5: 02	testb	%al, %al							   |	00000000000000af: 03	movq	%r15, %rdx
00000000000000b7: 02	je	0x46efb5 <BloombergLP::balcl::(anonymous namespace)::u::ArrayCon   |	00000000000000b2: 02	callq	*%rax
00000000000000b9: 04	movl	64(%r15), %eax							   |	00000000000000b4: 02	testb	%al, %al
00000000000000bd: 02	decl	%eax								   |	00000000000000b6: 06	je	0x46ec10 <BloombergLP::balcl::(anonymous namespace)::u::ArrayCon
00000000000000bf: 07	jmpq	*4916176(,%rax,8)						   |	00000000000000bc: 04	movl	64(%r14), %eax
00000000000000c6: 04	leaq	32(%r15), %rax							   |	00000000000000c0: 02	decl	%eax
00000000000000ca: 03	cmpb	$0, (%rax)							   |	00000000000000c2: 03	cmpl	$19, %eax
00000000000000cd: 06	jne	0x46f098 <BloombergLP::balcl::(anonymous namespace)::u::ArrayCon   |	00000000000000c5: 06	ja	0x46ed31 <BloombergLP::balcl::(anonymous namespace)::u::ArrayCon
00000000000000d3: 02	jmp	0x46eff6 <BloombergLP::balcl::(anonymous namespace)::u::ArrayCon   |	00000000000000cb: 07	jmpq	*4917072(,%rax,8)
00000000000000d5: 02	xorl	%ebx, %ebx							   |	00000000000000d2: 04	leaq	32(%r14), %rax
00000000000000d7: 05	jmp	0x46f0a5 <BloombergLP::balcl::(anonymous namespace)::u::ArrayCon   |	00000000000000d6: 03	cmpb	$0, (%rax)
00000000000000dc: 04	leaq	8(%r15), %rax							   |	00000000000000d9: 06	jne	0x46ecf9 <BloombergLP::balcl::(anonymous namespace)::u::ArrayCon
00000000000000e0: 03	cmpb	$0, (%rax)							   |	00000000000000df: 05	jmp	0x46ec51 <BloombergLP::balcl::(anonymous namespace)::u::ArrayCon
00000000000000e3: 06	jne	0x46f098 <BloombergLP::balcl::(anonymous namespace)::u::ArrayCon   |	00000000000000e4: 03	addl	$-2, %ebp
00000000000000e9: 02	jmp	0x46eff6 <BloombergLP::balcl::(anonymous namespace)::u::ArrayCon   |	00000000000000e7: 05	movl	$4931911, %ebx
00000000000000eb: 04	leaq	1(%r15), %rax							   |	00000000000000ec: 03	cmpl	$7, %ebp
00000000000000ef: 03	cmpb	$0, (%rax)							   |	00000000000000ef: 02	ja	0x46ebac <BloombergLP::balcl::(anonymous namespace)::u::ArrayCon
00000000000000f2: 06	jne	0x46f098 <BloombergLP::balcl::(anonymous namespace)::u::ArrayCon   |	00000000000000f1: 03	movslq	%ebp, %rax
00000000000000f8: 02	jmp	0x46eff6 <BloombergLP::balcl::(anonymous namespace)::u::ArrayCon   |	00000000000000f4: 08	movq	4931624(,%rax,8), %rbx
00000000000000fa: 04	leaq	4(%r15), %rax							   |	00000000000000fc: 03	movq	%rbx, %rdi
00000000000000fe: 03	cmpb	$0, (%rax)							   |	00000000000000ff: 05	callq	0x4046c0 <strlen@plt>
0000000000000101: 06	jne	0x46f098 <BloombergLP::balcl::(anonymous namespace)::u::ArrayCon   |	0000000000000104: 03	movq	%r15, %rdi
0000000000000107: 02	jmp	0x46eff6 <BloombergLP::balcl::(anonymous namespace)::u::ArrayCon   |	0000000000000107: 03	movq	%rbx, %rsi
0000000000000109: 04	leaq	48(%r15), %rax							   |	000000000000010a: 03	movq	%rax, %rdx
000000000000010d: 03	cmpb	$0, (%rax)							   |	000000000000010d: 05	callq	0x455480 <std::__1::basic_ostream<char, std::__1::char_traits<ch
0000000000000110: 06	jne	0x46f098 <BloombergLP::balcl::(anonymous namespace)::u::ArrayCon   |	0000000000000112: 05	movl	$4931773, %esi
0000000000000116: 07	movq	2710571(%rip), %rax  # 704c28 <BloombergLP::bslma::Default::s_de   |	0000000000000117: 05	movl	$33, %edx
000000000000011d: 03	testq	%rax, %rax							   |	000000000000011c: 03	movq	%rax, %rdi
0000000000000120: 02	jne	0x46f007 <BloombergLP::balcl::(anonymous namespace)::u::ArrayCon   |	000000000000011f: 05	callq	0x455480 <std::__1::basic_ostream<char, std::__1::char_traits<ch
0000000000000122: 05	callq	0x47cad0 <BloombergLP::bslma::Default::determineAndReturnDefault   |	0000000000000124: 03	movq	%rax, %rdi
0000000000000127: 04	movq	40(%r15), %r14							   |	0000000000000127: 03	movq	%r13, %rsi
000000000000012b: 05	cmpb	$0, 32(%r15)							   |	000000000000012a: 05	callq	0x44f6f0 <std::__1::basic_ostream<char, std::__1::char_traits<ch
0000000000000130: 02	je	0x46f067 <BloombergLP::balcl::(anonymous namespace)::u::ArrayCon   |	000000000000012f: 05	movl	$4915277, %esi
0000000000000132: 05	movb	$0, 32(%r15)							   |	0000000000000134: 05	movl	$1, %edx
0000000000000137: 03	movq	(%r15), %rbx							   |	0000000000000139: 03	movq	%rax, %rdi
000000000000013a: 03	testq	%rbx, %rbx							   |	000000000000013c: 05	callq	0x455480 <std::__1::basic_ostream<char, std::__1::char_traits<ch
000000000000013d: 02	je	0x46f067 <BloombergLP::balcl::(anonymous namespace)::u::ArrayCon   |	0000000000000141: 05	movb	$10, 7(%rsp)
000000000000013f: 04	movq	8(%r15), %r12							   |	0000000000000146: 05	leaq	7(%rsp), %rsi
0000000000000143: 03	cmpq	%r12, %rbx							   |	000000000000014b: 05	movl	$1, %edx
0000000000000146: 02	jne	0x46f041 <BloombergLP::balcl::(anonymous namespace)::u::ArrayCon   |	0000000000000150: 03	movq	%rax, %rdi
0000000000000148: 02	jmp	0x46f05a <BloombergLP::balcl::(anonymous namespace)::u::ArrayCon   |	0000000000000153: 05	callq	0x455480 <std::__1::basic_ostream<char, std::__1::char_traits<ch
000000000000014a: 06	nopw	(%rax,%rax)							   |	0000000000000158: 03	movq	%rax, %rdi
0000000000000150: 08	movq	$-1, 24(%rbx)							   |	000000000000015b: 05	callq	0x404980 <_ZNSt3__113basic_ostreamIcNS_11char_traitsIcEEE5flushE
0000000000000158: 04	addq	$48, %rbx							   |	0000000000000160: 02	xorl	%ebx, %ebx
000000000000015c: 03	cmpq	%rbx, %r12							   |	0000000000000162: 05	jmp	0x46ed08 <BloombergLP::balcl::(anonymous namespace)::u::ArrayCon
000000000000015f: 02	je	0x46f057 <BloombergLP::balcl::(anonymous namespace)::u::ArrayCon   |	0000000000000167: 04	leaq	8(%r14), %rax
0000000000000161: 05	cmpq	$23, 32(%rbx)							   |	000000000000016b: 03	cmpb	$0, (%rax)
0000000000000166: 02	je	0x46f030 <BloombergLP::balcl::(anonymous namespace)::u::ArrayCon   |	000000000000016e: 06	jne	0x46ecf9 <BloombergLP::balcl::(anonymous namespace)::u::ArrayCon
0000000000000168: 03	movq	(%rbx), %rsi							   |	0000000000000174: 02	jmp	0x46ec51 <BloombergLP::balcl::(anonymous namespace)::u::ArrayCon
000000000000016b: 04	movq	40(%rbx), %rdi							   |	0000000000000176: 04	leaq	1(%r14), %rax
000000000000016f: 03	movq	(%rdi), %rax							   |	000000000000017a: 03	cmpb	$0, (%rax)
0000000000000172: 03	callq	*24(%rax)							   |	000000000000017d: 06	jne	0x46ecf9 <BloombergLP::balcl::(anonymous namespace)::u::ArrayCon
0000000000000175: 02	jmp	0x46f030 <BloombergLP::balcl::(anonymous namespace)::u::ArrayCon   |	0000000000000183: 02	jmp	0x46ec51 <BloombergLP::balcl::(anonymous namespace)::u::ArrayCon
0000000000000177: 03	movq	(%r15), %rbx							   |	0000000000000185: 04	leaq	4(%r14), %rax
000000000000017a: 04	movq	24(%r15), %rdi							   |	0000000000000189: 03	cmpb	$0, (%rax)
000000000000017e: 03	movq	(%rdi), %rax							   |	000000000000018c: 06	jne	0x46ecf9 <BloombergLP::balcl::(anonymous namespace)::u::ArrayCon
0000000000000181: 03	movq	%rbx, %rsi							   |	0000000000000192: 02	jmp	0x46ec51 <BloombergLP::balcl::(anonymous namespace)::u::ArrayCon
0000000000000184: 03	callq	*24(%rax)							   |	0000000000000194: 04	leaq	48(%r14), %rax
0000000000000187: 03	testq	%r14, %r14							   |	0000000000000198: 03	cmpb	$0, (%rax)
000000000000018a: 02	jne	0x46f080 <BloombergLP::balcl::(anonymous namespace)::u::ArrayCon   |	000000000000019b: 06	jne	0x46ecf9 <BloombergLP::balcl::(anonymous namespace)::u::ArrayCon
000000000000018c: 07	movq	2710453(%rip), %r14  # 704c28 <BloombergLP::bslma::Default::s_de   |	00000000000001a1: 07	movq	2715600(%rip), %rax  # 705c28 <BloombergLP::bslma::Default::s_de
0000000000000193: 03	testq	%r14, %r14							   |	00000000000001a8: 03	testq	%rax, %rax
0000000000000196: 02	jne	0x46f080 <BloombergLP::balcl::(anonymous namespace)::u::ArrayCon   |	00000000000001ab: 02	jne	0x46ec62 <BloombergLP::balcl::(anonymous namespace)::u::ArrayCon
0000000000000198: 05	callq	0x47cad0 <BloombergLP::bslma::Default::determineAndReturnDefault   |	00000000000001ad: 05	callq	0x47ce20 <BloombergLP::bslma::Default::determineAndReturnDefault
000000000000019d: 03	movq	%rax, %r14							   |	00000000000001b2: 04	movq	40(%r14), %r15
00000000000001a0: 03	xorps	%xmm0, %xmm0							   |	00000000000001b6: 05	cmpb	$0, 32(%r14)
00000000000001a3: 04	movups	%xmm0, (%r15)							   |	00000000000001bb: 02	je	0x46ecc8 <BloombergLP::balcl::(anonymous namespace)::u::ArrayCon
00000000000001a7: 08	movq	$0, 16(%r15)							   |	00000000000001bd: 05	movb	$0, 32(%r14)
00000000000001af: 04	movq	%r14, 24(%r15)							   |	00000000000001c2: 03	movq	(%r14), %rbp
00000000000001b3: 05	movb	$1, 32(%r15)							   |	00000000000001c5: 03	testq	%rbp, %rbp
00000000000001b8: 02	movb	$1, %bl								   |	00000000000001c8: 02	je	0x46ecc8 <BloombergLP::balcl::(anonymous namespace)::u::ArrayCon
00000000000001ba: 03	movq	%rsp, %rsi							   |	00000000000001ca: 04	movq	8(%r14), %rbx
00000000000001bd: 03	movq	%r15, %rdi							   |	00000000000001ce: 03	cmpq	%rbx, %rbp
00000000000001c0: 05	callq	0x454d80 <bsl::vector<bsl::basic_string<char, std::__1::char_tra   |	00000000000001d1: 02	jne	0x46eca1 <BloombergLP::balcl::(anonymous namespace)::u::ArrayCon
00000000000001c5: 06	cmpq	$23, 32(%rsp)							   |	00000000000001d3: 02	jmp	0x46ecbb <BloombergLP::balcl::(anonymous namespace)::u::ArrayCon
00000000000001cb: 02	je	0x46f0bc <BloombergLP::balcl::(anonymous namespace)::u::ArrayCon   |	00000000000001d5: 10	nopw	%cs:(%rax,%rax)
00000000000001cd: 04	movq	(%rsp), %rsi							   |	00000000000001df: 01	nop	
00000000000001d1: 05	movq	40(%rsp), %rdi							   |	00000000000001e0: 08	movq	$-1, 24(%rbp)
00000000000001d6: 03	movq	(%rdi), %rax							   |	00000000000001e8: 04	addq	$48, %rbp
00000000000001d9: 03	callq	*24(%rax)							   |	00000000000001ec: 03	cmpq	%rbp, %rbx
00000000000001dc: 02	movl	%ebx, %eax							   |	00000000000001ef: 02	je	0x46ecb8 <BloombergLP::balcl::(anonymous namespace)::u::ArrayCon
00000000000001de: 04	addq	$48, %rsp							   |	00000000000001f1: 05	cmpq	$23, 32(%rbp)
00000000000001e2: 01	popq	%rbx								   |	00000000000001f6: 02	je	0x46ec90 <BloombergLP::balcl::(anonymous namespace)::u::ArrayCon
00000000000001e3: 02	popq	%r12								   |	00000000000001f8: 04	movq	(%rbp), %rsi
00000000000001e5: 02	popq	%r13								   |	00000000000001fc: 04	movq	40(%rbp), %rdi
00000000000001e7: 02	popq	%r14								   |	0000000000000200: 03	movq	(%rdi), %rax
00000000000001e9: 02	popq	%r15								   |	0000000000000203: 03	callq	*24(%rax)
00000000000001eb: 01	retq									   |	0000000000000206: 02	jmp	0x46ec90 <BloombergLP::balcl::(anonymous namespace)::u::ArrayCon
00000000000001ec: 02	jmp	0x46f100 <BloombergLP::balcl::(anonymous namespace)::u::ArrayCon   |	0000000000000208: 03	movq	(%r14), %rbp
00000000000001ee: 03	movq	%rax, %rdi							   |	000000000000020b: 04	movq	24(%r14), %rdi
00000000000001f1: 05	callq	0x451530 <__clang_call_terminate>				   |	000000000000020f: 03	movq	(%rdi), %rax
00000000000001f6: 03	movq	%rax, %rdi							   |	0000000000000212: 03	movq	%rbp, %rsi
00000000000001f9: 05	callq	0x451530 <__clang_call_terminate>				   |	0000000000000215: 03	callq	*24(%rax)
00000000000001fe: 03	movq	%rax, %rdi							   |	0000000000000218: 03	testq	%r15, %r15
0000000000000201: 05	callq	0x451530 <__clang_call_terminate>				   |	000000000000021b: 02	jne	0x46ece1 <BloombergLP::balcl::(anonymous namespace)::u::ArrayCon
0000000000000206: 03	movq	%rax, %rdi							   |	000000000000021d: 07	movq	2715476(%rip), %r15  # 705c28 <BloombergLP::bslma::Default::s_de
0000000000000209: 05	callq	0x451530 <__clang_call_terminate>				   |	0000000000000224: 03	testq	%r15, %r15
000000000000020e: 03	movq	%rax, %rbx							   |	0000000000000227: 02	jne	0x46ece1 <BloombergLP::balcl::(anonymous namespace)::u::ArrayCon
0000000000000211: 05	movq	%r13, 24(%rsp)							   |	0000000000000229: 05	callq	0x47ce20 <BloombergLP::bslma::Default::determineAndReturnDefault
0000000000000216: 02	jmp	0x46f103 <BloombergLP::balcl::(anonymous namespace)::u::ArrayCon   |	000000000000022e: 03	movq	%rax, %r15
0000000000000218: 03	movq	%rax, %rdi							   |	0000000000000231: 03	xorps	%xmm0, %xmm0
000000000000021b: 05	callq	0x451530 <__clang_call_terminate>				   |	0000000000000234: 04	movups	%xmm0, (%r14)
0000000000000220: 03	movq	%rax, %rbx							   |	0000000000000238: 08	movq	$0, 16(%r14)
0000000000000223: 06	cmpq	$23, 32(%rsp)							   |	0000000000000240: 04	movq	%r15, 24(%r14)
0000000000000229: 02	je	0x46f11a <BloombergLP::balcl::(anonymous namespace)::u::ArrayCon   |	0000000000000244: 05	movb	$1, 32(%r14)
000000000000022b: 04	movq	(%rsp), %rsi							   |	0000000000000249: 02	movb	$1, %bl
000000000000022f: 05	movq	40(%rsp), %rdi							   |	000000000000024b: 05	leaq	8(%rsp), %rsi
0000000000000234: 03	movq	(%rdi), %rax							   |	0000000000000250: 03	movq	%r14, %rdi
0000000000000237: 03	callq	*24(%rax)							   |	0000000000000253: 05	callq	0x454770 <bsl::vector<bsl::basic_string<char, std::__1::char_tra
000000000000023a: 03	movq	%rbx, %rdi							   |	0000000000000258: 06	cmpq	$23, 40(%rsp)
000000000000023d: 05	callq	0x404c00 <_Unwind_Resume@plt>					   |	000000000000025e: 02	je	0x46ed20 <BloombergLP::balcl::(anonymous namespace)::u::ArrayCon
0000000000000242: 03	movq	%rax, %rdi							   |	0000000000000260: 05	movq	8(%rsp), %rsi
0000000000000245: 05	callq	0x451530 <__clang_call_terminate>				   |	0000000000000265: 05	movq	48(%rsp), %rdi
000000000000024a: 06	nopw	(%rax,%rax)							   |	000000000000026a: 03	movq	(%rdi), %rax
												   >	000000000000026d: 03	callq	*24(%rax)
												   >	0000000000000270: 02	movl	%ebx, %eax
												   >	0000000000000272: 04	addq	$56, %rsp
												   >	0000000000000276: 01	popq	%rbx
												   >	0000000000000277: 02	popq	%r12
												   >	0000000000000279: 02	popq	%r13
												   >	000000000000027b: 02	popq	%r14
												   >	000000000000027d: 02	popq	%r15
												   >	000000000000027f: 01	popq	%rbp
												   >	0000000000000280: 01	retq	
												   >	0000000000000281: 02	ud2	
												   >	0000000000000283: 02	jmp	0x46ed5d <BloombergLP::balcl::(anonymous namespace)::u::ArrayCon
												   >	0000000000000285: 03	movq	%rax, %rdi
												   >	0000000000000288: 05	callq	0x450f10 <__clang_call_terminate>
												   >	000000000000028d: 03	movq	%rax, %rdi
												   >	0000000000000290: 05	callq	0x450f10 <__clang_call_terminate>
												   >	0000000000000295: 03	movq	%rax, %rdi
												   >	0000000000000298: 05	callq	0x450f10 <__clang_call_terminate>
												   >	000000000000029d: 03	movq	%rax, %rdi
												   >	00000000000002a0: 05	callq	0x450f10 <__clang_call_terminate>
												   >	00000000000002a5: 03	movq	%rax, %rdi
												   >	00000000000002a8: 05	callq	0x450f10 <__clang_call_terminate>
												   >	00000000000002ad: 03	movq	%rax, %rbx
												   >	00000000000002b0: 06	cmpq	$23, 40(%rsp)
												   >	00000000000002b6: 02	je	0x46ed78 <BloombergLP::balcl::(anonymous namespace)::u::ArrayCon
												   >	00000000000002b8: 05	movq	8(%rsp), %rsi
												   >	00000000000002bd: 05	movq	48(%rsp), %rdi
												   >	00000000000002c2: 03	movq	(%rdi), %rax
												   >	00000000000002c5: 03	callq	*24(%rax)
												   >	00000000000002c8: 03	movq	%rbx, %rdi
												   >	00000000000002cb: 05	callq	0x404c00 <_Unwind_Resume@plt>
												   >	00000000000002d0: 03	movq	%rax, %rdi
												   >	00000000000002d3: 05	callq	0x450f10 <__clang_call_terminate>
												   >	00000000000002d8: 08	nopl	(%rax,%rax)
