0000000000413330 <(anonymous namespace)::u::constructTypeInfo(void*, BloombergLP::balcl::OptionT   |	0000000000413390 <(anonymous namespace)::u::constructTypeInfo(void*, BloombergLP::balcl::OptionT
0000000000000000: 01	pushq	%rbx									0000000000000000: 01	pushq	%rbx
0000000000000001: 03	movq	%rdi, %rbx							   |	0000000000000001: 02	decl	%esi
0000000000000004: 02	decl	%esi								   |	0000000000000003: 03	cmpl	$16, %esi
0000000000000006: 07	jmpq	*4538656(,%rsi,8)						   |	0000000000000006: 02	ja	0x4133b5 <(anonymous namespace)::u::constructTypeInfo(void*, Blo
000000000000000d: 03	movq	%rbx, %rdi							   |	0000000000000008: 03	movq	%rdi, %rbx
0000000000000010: 03	movq	%rdx, %rsi							   |	000000000000000b: 07	jmpq	*4541248(,%rsi,8)
0000000000000013: 03	movq	%rcx, %rdx							   |	0000000000000012: 03	movq	%rbx, %rdi
0000000000000016: 05	callq	0x419270 <BloombergLP::balcl::TypeInfo::TypeInfo(bool*, Bloomber   |	0000000000000015: 03	movq	%rdx, %rsi
000000000000001b: 05	jmp	0x413463 <(anonymous namespace)::u::constructTypeInfo(void*, Blo   |	0000000000000018: 03	movq	%rcx, %rdx
0000000000000020: 03	movq	%rbx, %rdi							   |	000000000000001b: 05	callq	0x419320 <BloombergLP::balcl::TypeInfo::TypeInfo(bool*, Bloomber
0000000000000023: 03	movq	%rdx, %rsi							   |	0000000000000020: 05	jmp	0x4134cf <(anonymous namespace)::u::constructTypeInfo(void*, Blo
0000000000000026: 03	movq	%rcx, %rdx							   |	0000000000000025: 02	xorl	%ebx, %ebx
0000000000000029: 05	callq	0x4192e0 <BloombergLP::balcl::TypeInfo::TypeInfo(char*, Bloomber   |	0000000000000027: 05	jmp	0x4134cf <(anonymous namespace)::u::constructTypeInfo(void*, Blo
000000000000002e: 05	jmp	0x413463 <(anonymous namespace)::u::constructTypeInfo(void*, Blo   |	000000000000002c: 03	movq	%rbx, %rdi
0000000000000033: 03	movq	%rbx, %rdi							   |	000000000000002f: 03	movq	%rdx, %rsi
0000000000000036: 03	movq	%rdx, %rsi							   |	0000000000000032: 03	movq	%rcx, %rdx
0000000000000039: 03	movq	%rcx, %rdx							   |	0000000000000035: 05	callq	0x419390 <BloombergLP::balcl::TypeInfo::TypeInfo(char*, Bloomber
000000000000003c: 05	callq	0x419690 <BloombergLP::balcl::TypeInfo::TypeInfo(int*, Bloomberg   |	000000000000003a: 05	jmp	0x4134cf <(anonymous namespace)::u::constructTypeInfo(void*, Blo
0000000000000041: 05	jmp	0x413463 <(anonymous namespace)::u::constructTypeInfo(void*, Blo   |	000000000000003f: 03	movq	%rbx, %rdi
0000000000000046: 03	movq	%rbx, %rdi							   |	0000000000000042: 03	movq	%rdx, %rsi
0000000000000049: 03	movq	%rdx, %rsi							   |	0000000000000045: 03	movq	%rcx, %rdx
000000000000004c: 03	movq	%rcx, %rdx							   |	0000000000000048: 05	callq	0x419750 <BloombergLP::balcl::TypeInfo::TypeInfo(int*, Bloomberg
000000000000004f: 05	callq	0x419a40 <BloombergLP::balcl::TypeInfo::TypeInfo(long long*, Blo   |	000000000000004d: 05	jmp	0x4134cf <(anonymous namespace)::u::constructTypeInfo(void*, Blo
0000000000000054: 05	jmp	0x413463 <(anonymous namespace)::u::constructTypeInfo(void*, Blo   |	0000000000000052: 03	movq	%rbx, %rdi
0000000000000059: 03	movq	%rbx, %rdi							   |	0000000000000055: 03	movq	%rdx, %rsi
000000000000005c: 03	movq	%rdx, %rsi							   |	0000000000000058: 03	movq	%rcx, %rdx
000000000000005f: 03	movq	%rcx, %rdx							   |	000000000000005b: 05	callq	0x419b10 <BloombergLP::balcl::TypeInfo::TypeInfo(long long*, Blo
0000000000000062: 05	callq	0x419df0 <BloombergLP::balcl::TypeInfo::TypeInfo(double*, Bloomb   |	0000000000000060: 05	jmp	0x4134cf <(anonymous namespace)::u::constructTypeInfo(void*, Blo
0000000000000067: 05	jmp	0x413463 <(anonymous namespace)::u::constructTypeInfo(void*, Blo   |	0000000000000065: 03	movq	%rbx, %rdi
000000000000006c: 03	movq	%rbx, %rdi							   |	0000000000000068: 03	movq	%rdx, %rsi
000000000000006f: 03	movq	%rdx, %rsi							   |	000000000000006b: 03	movq	%rcx, %rdx
0000000000000072: 03	movq	%rcx, %rdx							   |	000000000000006e: 05	callq	0x419ed0 <BloombergLP::balcl::TypeInfo::TypeInfo(double*, Bloomb
0000000000000075: 05	callq	0x41a1a0 <BloombergLP::balcl::TypeInfo::TypeInfo(bsl::basic_stri   |	0000000000000073: 05	jmp	0x4134cf <(anonymous namespace)::u::constructTypeInfo(void*, Blo
000000000000007a: 05	jmp	0x413463 <(anonymous namespace)::u::constructTypeInfo(void*, Blo   |	0000000000000078: 03	movq	%rbx, %rdi
000000000000007f: 03	movq	%rbx, %rdi							   |	000000000000007b: 03	movq	%rdx, %rsi
0000000000000082: 03	movq	%rdx, %rsi							   |	000000000000007e: 03	movq	%rcx, %rdx
0000000000000085: 03	movq	%rcx, %rdx							   |	0000000000000081: 05	callq	0x41a290 <BloombergLP::balcl::TypeInfo::TypeInfo(bsl::basic_stri
0000000000000088: 05	callq	0x41a550 <BloombergLP::balcl::TypeInfo::TypeInfo(BloombergLP::bd   |	0000000000000086: 05	jmp	0x4134cf <(anonymous namespace)::u::constructTypeInfo(void*, Blo
000000000000008d: 05	jmp	0x413463 <(anonymous namespace)::u::constructTypeInfo(void*, Blo   |	000000000000008b: 03	movq	%rbx, %rdi
0000000000000092: 03	movq	%rbx, %rdi							   |	000000000000008e: 03	movq	%rdx, %rsi
0000000000000095: 03	movq	%rdx, %rsi							   |	0000000000000091: 03	movq	%rcx, %rdx
0000000000000098: 03	movq	%rcx, %rdx							   |	0000000000000094: 05	callq	0x41a650 <BloombergLP::balcl::TypeInfo::TypeInfo(BloombergLP::bd
000000000000009b: 05	callq	0x41a900 <BloombergLP::balcl::TypeInfo::TypeInfo(BloombergLP::bd   |	0000000000000099: 05	jmp	0x4134cf <(anonymous namespace)::u::constructTypeInfo(void*, Blo
00000000000000a0: 05	jmp	0x413463 <(anonymous namespace)::u::constructTypeInfo(void*, Blo   |	000000000000009e: 03	movq	%rbx, %rdi
00000000000000a5: 03	movq	%rbx, %rdi							   |	00000000000000a1: 03	movq	%rdx, %rsi
00000000000000a8: 03	movq	%rdx, %rsi							   |	00000000000000a4: 03	movq	%rcx, %rdx
00000000000000ab: 03	movq	%rcx, %rdx							   |	00000000000000a7: 05	callq	0x41aa10 <BloombergLP::balcl::TypeInfo::TypeInfo(BloombergLP::bd
00000000000000ae: 05	callq	0x41acb0 <BloombergLP::balcl::TypeInfo::TypeInfo(BloombergLP::bd   |	00000000000000ac: 05	jmp	0x4134cf <(anonymous namespace)::u::constructTypeInfo(void*, Blo
00000000000000b3: 02	jmp	0x413463 <(anonymous namespace)::u::constructTypeInfo(void*, Blo   |	00000000000000b1: 03	movq	%rbx, %rdi
00000000000000b5: 03	movq	%rbx, %rdi							   |	00000000000000b4: 03	movq	%rdx, %rsi
00000000000000b8: 03	movq	%rdx, %rsi							   |	00000000000000b7: 03	movq	%rcx, %rdx
00000000000000bb: 03	movq	%rcx, %rdx							   |	00000000000000ba: 05	callq	0x41add0 <BloombergLP::balcl::TypeInfo::TypeInfo(BloombergLP::bd
00000000000000be: 05	callq	0x41b060 <BloombergLP::balcl::TypeInfo::TypeInfo(bsl::vector<cha   |	00000000000000bf: 02	jmp	0x4134cf <(anonymous namespace)::u::constructTypeInfo(void*, Blo
00000000000000c3: 02	jmp	0x413463 <(anonymous namespace)::u::constructTypeInfo(void*, Blo   |	00000000000000c1: 03	movq	%rbx, %rdi
00000000000000c5: 03	movq	%rbx, %rdi							   |	00000000000000c4: 03	movq	%rdx, %rsi
00000000000000c8: 03	movq	%rdx, %rsi							   |	00000000000000c7: 03	movq	%rcx, %rdx
00000000000000cb: 03	movq	%rcx, %rdx							   |	00000000000000ca: 05	callq	0x41b190 <BloombergLP::balcl::TypeInfo::TypeInfo(bsl::vector<cha
00000000000000ce: 05	callq	0x41b140 <BloombergLP::balcl::TypeInfo::TypeInfo(bsl::vector<int   |	00000000000000cf: 02	jmp	0x4134cf <(anonymous namespace)::u::constructTypeInfo(void*, Blo
00000000000000d3: 02	jmp	0x413463 <(anonymous namespace)::u::constructTypeInfo(void*, Blo   |	00000000000000d1: 03	movq	%rbx, %rdi
00000000000000d5: 03	movq	%rbx, %rdi							   |	00000000000000d4: 03	movq	%rdx, %rsi
00000000000000d8: 03	movq	%rdx, %rsi							   |	00000000000000d7: 03	movq	%rcx, %rdx
00000000000000db: 03	movq	%rcx, %rdx							   |	00000000000000da: 05	callq	0x41b270 <BloombergLP::balcl::TypeInfo::TypeInfo(bsl::vector<int
00000000000000de: 05	callq	0x41b220 <BloombergLP::balcl::TypeInfo::TypeInfo(bsl::vector<lon   |	00000000000000df: 02	jmp	0x4134cf <(anonymous namespace)::u::constructTypeInfo(void*, Blo
00000000000000e3: 02	jmp	0x413463 <(anonymous namespace)::u::constructTypeInfo(void*, Blo   |	00000000000000e1: 03	movq	%rbx, %rdi
00000000000000e5: 03	movq	%rbx, %rdi							   |	00000000000000e4: 03	movq	%rdx, %rsi
00000000000000e8: 03	movq	%rdx, %rsi							   |	00000000000000e7: 03	movq	%rcx, %rdx
00000000000000eb: 03	movq	%rcx, %rdx							   |	00000000000000ea: 05	callq	0x41b350 <BloombergLP::balcl::TypeInfo::TypeInfo(bsl::vector<lon
00000000000000ee: 05	callq	0x41b300 <BloombergLP::balcl::TypeInfo::TypeInfo(bsl::vector<dou   |	00000000000000ef: 02	jmp	0x4134cf <(anonymous namespace)::u::constructTypeInfo(void*, Blo
00000000000000f3: 02	jmp	0x413463 <(anonymous namespace)::u::constructTypeInfo(void*, Blo   |	00000000000000f1: 03	movq	%rbx, %rdi
00000000000000f5: 03	movq	%rbx, %rdi							   |	00000000000000f4: 03	movq	%rdx, %rsi
00000000000000f8: 03	movq	%rdx, %rsi							   |	00000000000000f7: 03	movq	%rcx, %rdx
00000000000000fb: 03	movq	%rcx, %rdx							   |	00000000000000fa: 05	callq	0x41b430 <BloombergLP::balcl::TypeInfo::TypeInfo(bsl::vector<dou
00000000000000fe: 05	callq	0x41b3e0 <BloombergLP::balcl::TypeInfo::TypeInfo(bsl::vector<bsl   |	00000000000000ff: 02	jmp	0x4134cf <(anonymous namespace)::u::constructTypeInfo(void*, Blo
0000000000000103: 02	jmp	0x413463 <(anonymous namespace)::u::constructTypeInfo(void*, Blo   |	0000000000000101: 03	movq	%rbx, %rdi
0000000000000105: 03	movq	%rbx, %rdi							   |	0000000000000104: 03	movq	%rdx, %rsi
0000000000000108: 03	movq	%rdx, %rsi							   |	0000000000000107: 03	movq	%rcx, %rdx
000000000000010b: 03	movq	%rcx, %rdx							   |	000000000000010a: 05	callq	0x41b510 <BloombergLP::balcl::TypeInfo::TypeInfo(bsl::vector<bsl
000000000000010e: 05	callq	0x41b4c0 <BloombergLP::balcl::TypeInfo::TypeInfo(bsl::vector<Blo   |	000000000000010f: 02	jmp	0x4134cf <(anonymous namespace)::u::constructTypeInfo(void*, Blo
0000000000000113: 02	jmp	0x413463 <(anonymous namespace)::u::constructTypeInfo(void*, Blo   |	0000000000000111: 03	movq	%rbx, %rdi
0000000000000115: 03	movq	%rbx, %rdi							   |	0000000000000114: 03	movq	%rdx, %rsi
0000000000000118: 03	movq	%rdx, %rsi							   |	0000000000000117: 03	movq	%rcx, %rdx
000000000000011b: 03	movq	%rcx, %rdx							   |	000000000000011a: 05	callq	0x41b5f0 <BloombergLP::balcl::TypeInfo::TypeInfo(bsl::vector<Blo
000000000000011e: 05	callq	0x41b5a0 <BloombergLP::balcl::TypeInfo::TypeInfo(bsl::vector<Blo   |	000000000000011f: 02	jmp	0x4134cf <(anonymous namespace)::u::constructTypeInfo(void*, Blo
0000000000000123: 02	jmp	0x413463 <(anonymous namespace)::u::constructTypeInfo(void*, Blo   |	0000000000000121: 03	movq	%rbx, %rdi
0000000000000125: 03	movq	%rbx, %rdi							   |	0000000000000124: 03	movq	%rdx, %rsi
0000000000000128: 03	movq	%rdx, %rsi							   |	0000000000000127: 03	movq	%rcx, %rdx
000000000000012b: 03	movq	%rcx, %rdx							   |	000000000000012a: 05	callq	0x41b6d0 <BloombergLP::balcl::TypeInfo::TypeInfo(bsl::vector<Blo
000000000000012e: 05	callq	0x41b680 <BloombergLP::balcl::TypeInfo::TypeInfo(bsl::vector<Blo   |	000000000000012f: 02	jmp	0x4134cf <(anonymous namespace)::u::constructTypeInfo(void*, Blo
0000000000000133: 03	movq	%rbx, %rax							   |	0000000000000131: 03	movq	%rbx, %rdi
0000000000000136: 01	popq	%rbx								   |	0000000000000134: 03	movq	%rdx, %rsi
0000000000000137: 01	retq									   |	0000000000000137: 03	movq	%rcx, %rdx
0000000000000138: 08	nopl	(%rax,%rax)							   |	000000000000013a: 05	callq	0x41b7b0 <BloombergLP::balcl::TypeInfo::TypeInfo(bsl::vector<Blo
												   >	000000000000013f: 03	movq	%rbx, %rax
												   >	0000000000000142: 01	popq	%rbx
												   >	0000000000000143: 01	retq	
												   >	0000000000000144: 10	nopw	%cs:(%rax,%rax)
												   >	000000000000014e: 02	nop	
