000000000041ee10 <bsl::basic_stringbuf<char, std::__1::char_traits<char>, BloombergLP::bsltf::St   |	000000000041ee30 <bsl::basic_stringbuf<char, std::__1::char_traits<char>, BloombergLP::bsltf::St
0000000000000000: 03	cmpl	$1, %edx								0000000000000000: 03	cmpl	$1, %edx
0000000000000003: 02	jne	0x41ee2a <bsl::basic_stringbuf<char, std::__1::char_traits<char>   |	0000000000000003: 02	jne	0x41ee4a <bsl::basic_stringbuf<char, std::__1::char_traits<char>
0000000000000005: 02	movl	%ecx, %eax								0000000000000005: 02	movl	%ecx, %eax
0000000000000007: 03	andl	$24, %eax								0000000000000007: 03	andl	$24, %eax
000000000000000a: 07	movq	$-1, %r8								000000000000000a: 07	movq	$-1, %r8
0000000000000011: 03	cmpl	$24, %eax								0000000000000011: 03	cmpl	$24, %eax
0000000000000014: 06	je	0x41efe8 <bsl::basic_stringbuf<char, std::__1::char_traits<char>   |	0000000000000014: 06	je	0x41f00c <bsl::basic_stringbuf<char, std::__1::char_traits<char>
000000000000001a: 07	movq	$-1, %r8								000000000000001a: 07	movq	$-1, %r8
0000000000000021: 03	testb	$8, %cl									0000000000000021: 03	testb	$8, %cl
0000000000000024: 06	je	0x41eed4 <bsl::basic_stringbuf<char, std::__1::char_traits<char>   |	0000000000000024: 06	je	0x41eef3 <bsl::basic_stringbuf<char, std::__1::char_traits<char>
000000000000002a: 04	testb	$8, 120(%rdi)								000000000000002a: 04	testb	$8, 120(%rdi)
000000000000002e: 06	je	0x41eed4 <bsl::basic_stringbuf<char, std::__1::char_traits<char>   |	000000000000002e: 06	je	0x41eef3 <bsl::basic_stringbuf<char, std::__1::char_traits<char>
0000000000000034: 03	cmpl	$2, %edx								0000000000000034: 03	cmpl	$2, %edx
0000000000000037: 02	je	0x41ee5b <bsl::basic_stringbuf<char, std::__1::char_traits<char>   |	0000000000000037: 02	je	0x41ee78 <bsl::basic_stringbuf<char, std::__1::char_traits<char>
0000000000000039: 03	cmpl	$1, %edx								0000000000000039: 03	cmpl	$1, %edx
000000000000003c: 02	jne	0x41ee7a <bsl::basic_stringbuf<char, std::__1::char_traits<char>   |	000000000000003c: 02	je	0x41ee91 <bsl::basic_stringbuf<char, std::__1::char_traits<char>
000000000000003e: 04	movq	24(%rdi), %rax							   |	000000000000003e: 02	testl	%edx, %edx
0000000000000042: 03	addq	%rsi, %rax							   |	0000000000000040: 02	jne	0x41ee9a <bsl::basic_stringbuf<char, std::__1::char_traits<char>
0000000000000045: 04	movq	16(%rdi), %r9							   |	0000000000000042: 04	movq	16(%rdi), %r9
0000000000000049: 02	jmp	0x41ee82 <bsl::basic_stringbuf<char, std::__1::char_traits<char>   |	0000000000000046: 02	jmp	0x41ee95 <bsl::basic_stringbuf<char, std::__1::char_traits<char>
000000000000004b: 04	movq	16(%rdi), %r9							   |	0000000000000048: 04	movq	48(%rdi), %r9
000000000000004f: 04	movq	48(%rdi), %rax							   |	000000000000004c: 04	subq	40(%rdi), %r9
0000000000000053: 04	subq	40(%rdi), %rax							   |	0000000000000050: 04	movq	112(%rdi), %rax
0000000000000057: 04	movq	112(%rdi), %r8							   |	0000000000000054: 03	cmpq	%r9, %rax
000000000000005b: 03	cmpq	%rax, %r8							   |	0000000000000057: 04	cmovgeq	%rax, %r9
000000000000005e: 04	cmovgeq	%r8, %rax							   |	000000000000005b: 04	addq	16(%rdi), %r9
0000000000000062: 03	addq	%r9, %rax							   |	000000000000005f: 02	jmp	0x41ee95 <bsl::basic_stringbuf<char, std::__1::char_traits<char>
0000000000000065: 03	addq	%rsi, %rax							   |	0000000000000061: 04	movq	24(%rdi), %r9
0000000000000068: 02	jmp	0x41ee82 <bsl::basic_stringbuf<char, std::__1::char_traits<char>   |	0000000000000065: 03	addq	%rsi, %r9
000000000000006a: 04	movq	16(%rdi), %r9							   |	0000000000000068: 02	jmp	0x41ee9d <bsl::basic_stringbuf<char, std::__1::char_traits<char>
000000000000006e: 04	leaq	(%r9,%rsi), %rax						   |	000000000000006a: 03	xorl	%r9d, %r9d
0000000000000072: 07	movq	$-1, %r8							   |	000000000000006d: 04	movq	16(%rdi), %rax
0000000000000079: 03	cmpq	%r9, %rax							   |	0000000000000071: 07	movq	$-1, %r8
000000000000007c: 06	jb	0x41efe8 <bsl::basic_stringbuf<char, std::__1::char_traits<char>   |	0000000000000078: 03	cmpq	%rax, %r9
0000000000000082: 04	movq	48(%rdi), %r10							   |	000000000000007b: 06	jb	0x41f00c <bsl::basic_stringbuf<char, std::__1::char_traits<char>
0000000000000086: 04	movq	112(%rdi), %r11							   |	0000000000000081: 04	movq	48(%rdi), %r10
000000000000008a: 04	subq	40(%rdi), %r10							   |	0000000000000085: 04	movq	112(%rdi), %r11
000000000000008e: 03	cmpq	%r10, %r11							   |	0000000000000089: 04	subq	40(%rdi), %r10
0000000000000091: 04	cmovgeq	%r11, %r10							   |	000000000000008d: 03	cmpq	%r10, %r11
0000000000000095: 03	addq	%r10, %r9							   |	0000000000000090: 04	cmovgeq	%r11, %r10
0000000000000098: 03	cmpq	%r9, %rax							   |	0000000000000094: 03	addq	%r10, %rax
000000000000009b: 06	ja	0x41efe8 <bsl::basic_stringbuf<char, std::__1::char_traits<char>   |	0000000000000097: 03	cmpq	%rax, %r9
00000000000000a1: 04	leaq	64(%rdi), %r8							   |	000000000000009a: 06	ja	0x41f00c <bsl::basic_stringbuf<char, std::__1::char_traits<char>
00000000000000a5: 05	cmpq	$23, 96(%rdi)							   |	00000000000000a0: 04	leaq	64(%rdi), %r8
00000000000000aa: 02	je	0x41eebf <bsl::basic_stringbuf<char, std::__1::char_traits<char>   |	00000000000000a4: 05	cmpq	$23, 96(%rdi)
00000000000000ac: 03	movq	(%r8), %r8							   |	00000000000000a9: 02	je	0x41eede <bsl::basic_stringbuf<char, std::__1::char_traits<char>
00000000000000af: 03	addq	%r8, %r10							   |	00000000000000ab: 03	movq	(%r8), %r8
00000000000000b2: 04	movq	%r8, 16(%rdi)							   |	00000000000000ae: 03	addq	%r8, %r10
00000000000000b6: 04	movq	%rax, 24(%rdi)							   |	00000000000000b1: 04	movq	%r8, 16(%rdi)
00000000000000ba: 04	movq	%r10, 32(%rdi)							   |	00000000000000b5: 04	movq	%r9, 24(%rdi)
00000000000000be: 03	subq	%r8, %rax							   |	00000000000000b9: 04	movq	%r10, 32(%rdi)
00000000000000c1: 03	movq	%rax, %r8							   |	00000000000000bd: 03	subq	%r8, %r9
00000000000000c4: 03	testb	$16, %cl							   |	00000000000000c0: 03	movq	%r9, %r8
00000000000000c7: 06	je	0x41efe8 <bsl::basic_stringbuf<char, std::__1::char_traits<char>   |	00000000000000c3: 03	testb	$16, %cl
00000000000000cd: 04	testb	$16, 120(%rdi)							   |	00000000000000c6: 06	je	0x41f00c <bsl::basic_stringbuf<char, std::__1::char_traits<char>
00000000000000d1: 06	je	0x41efe8 <bsl::basic_stringbuf<char, std::__1::char_traits<char>   |	00000000000000cc: 04	testb	$16, 120(%rdi)
00000000000000d7: 03	cmpl	$2, %edx							   |	00000000000000d0: 06	je	0x41f00c <bsl::basic_stringbuf<char, std::__1::char_traits<char>
00000000000000da: 02	je	0x41eefb <bsl::basic_stringbuf<char, std::__1::char_traits<char>   |	00000000000000d6: 03	cmpl	$2, %edx
00000000000000dc: 03	cmpl	$1, %edx							   |	00000000000000d9: 02	je	0x41ef1a <bsl::basic_stringbuf<char, std::__1::char_traits<char>
00000000000000df: 02	jne	0x41ef19 <bsl::basic_stringbuf<char, std::__1::char_traits<char>   |	00000000000000db: 03	cmpl	$1, %edx
00000000000000e1: 04	addq	48(%rdi), %rsi							   |	00000000000000de: 02	je	0x41ef38 <bsl::basic_stringbuf<char, std::__1::char_traits<char>
00000000000000e5: 04	movq	40(%rdi), %rax							   |	00000000000000e0: 02	testl	%edx, %edx
00000000000000e9: 02	jmp	0x41ef20 <bsl::basic_stringbuf<char, std::__1::char_traits<char>   |	00000000000000e2: 02	jne	0x41ef3e <bsl::basic_stringbuf<char, std::__1::char_traits<char>
00000000000000eb: 04	movq	40(%rdi), %rax							   |	00000000000000e4: 04	addq	40(%rdi), %rsi
00000000000000ef: 04	movq	48(%rdi), %rcx							   |	00000000000000e8: 02	jmp	0x41ef40 <bsl::basic_stringbuf<char, std::__1::char_traits<char>
00000000000000f3: 03	subq	%rax, %rcx							   |	00000000000000ea: 04	movq	40(%rdi), %rax
00000000000000f6: 04	movq	112(%rdi), %rdx							   |	00000000000000ee: 04	movq	48(%rdi), %rcx
00000000000000fa: 03	cmpq	%rcx, %rdx							   |	00000000000000f2: 03	subq	%rax, %rcx
00000000000000fd: 04	cmovgeq	%rdx, %rcx							   |	00000000000000f5: 04	movq	112(%rdi), %rdx
0000000000000101: 03	addq	%rax, %rcx							   |	00000000000000f9: 03	cmpq	%rcx, %rdx
0000000000000104: 03	addq	%rcx, %rsi							   |	00000000000000fc: 04	cmovgeq	%rdx, %rcx
0000000000000107: 02	jmp	0x41ef20 <bsl::basic_stringbuf<char, std::__1::char_traits<char>   |	0000000000000100: 03	addq	%rax, %rcx
0000000000000109: 04	movq	40(%rdi), %rax							   |	0000000000000103: 03	addq	%rcx, %rsi
000000000000010d: 03	addq	%rax, %rsi							   |	0000000000000106: 02	jmp	0x41ef40 <bsl::basic_stringbuf<char, std::__1::char_traits<char>
0000000000000110: 07	movq	$-1, %r8							   |	0000000000000108: 04	addq	48(%rdi), %rsi
0000000000000117: 03	cmpq	%rax, %rsi							   |	000000000000010c: 02	jmp	0x41ef40 <bsl::basic_stringbuf<char, std::__1::char_traits<char>
000000000000011a: 06	jb	0x41efe8 <bsl::basic_stringbuf<char, std::__1::char_traits<char>   |	000000000000010e: 02	xorl	%esi, %esi
0000000000000120: 04	movq	48(%rdi), %rcx							   |	0000000000000110: 04	movq	40(%rdi), %rax
0000000000000124: 04	movq	112(%rdi), %rdx							   |	0000000000000114: 07	movq	$-1, %r8
0000000000000128: 03	subq	%rax, %rcx							   |	000000000000011b: 03	cmpq	%rax, %rsi
000000000000012b: 03	cmpq	%rcx, %rdx							   |	000000000000011e: 06	jb	0x41f00c <bsl::basic_stringbuf<char, std::__1::char_traits<char>
000000000000012e: 04	cmovgeq	%rdx, %rcx							   |	0000000000000124: 04	movq	48(%rdi), %rcx
0000000000000132: 03	addq	%rax, %rcx							   |	0000000000000128: 04	movq	112(%rdi), %rdx
0000000000000135: 03	cmpq	%rcx, %rsi							   |	000000000000012c: 03	subq	%rax, %rcx
0000000000000138: 06	ja	0x41efe8 <bsl::basic_stringbuf<char, std::__1::char_traits<char>   |	000000000000012f: 03	cmpq	%rcx, %rdx
000000000000013e: 04	leaq	64(%rdi), %r8							   |	0000000000000132: 04	cmovgeq	%rdx, %rcx
0000000000000142: 05	cmpq	$23, 96(%rdi)							   |	0000000000000136: 03	addq	%rax, %rcx
0000000000000147: 02	je	0x41ef5c <bsl::basic_stringbuf<char, std::__1::char_traits<char>   |	0000000000000139: 03	cmpq	%rcx, %rsi
0000000000000149: 03	movq	(%r8), %r8							   |	000000000000013c: 06	ja	0x41f00c <bsl::basic_stringbuf<char, std::__1::char_traits<char>
000000000000014c: 03	subq	%r8, %rsi							   |	0000000000000142: 04	leaq	64(%rdi), %r8
000000000000014f: 04	movq	88(%rdi), %rax							   |	0000000000000146: 05	cmpq	$23, 96(%rdi)
0000000000000153: 03	addq	%r8, %rax							   |	000000000000014b: 02	je	0x41ef80 <bsl::basic_stringbuf<char, std::__1::char_traits<char>
0000000000000156: 04	movq	%r8, 48(%rdi)							   |	000000000000014d: 03	movq	(%r8), %r8
000000000000015a: 04	movq	%r8, 40(%rdi)							   |	0000000000000150: 03	subq	%r8, %rsi
000000000000015e: 04	movq	%rax, 56(%rdi)							   |	0000000000000153: 04	movq	88(%rdi), %rax
0000000000000162: 05	movl	$2147483648, %eax						   |	0000000000000157: 03	addq	%r8, %rax
0000000000000167: 03	cmpq	%rax, %rsi							   |	000000000000015a: 04	movq	%r8, 48(%rdi)
000000000000016a: 02	jl	0x41efd4 <bsl::basic_stringbuf<char, std::__1::char_traits<char>   |	000000000000015e: 04	movq	%r8, 40(%rdi)
000000000000016c: 05	movl	$4294967294, %eax						   |	0000000000000162: 04	movq	%rax, 56(%rdi)
0000000000000171: 03	cmpq	%rax, %rsi							   |	0000000000000166: 05	movl	$2147483648, %eax
0000000000000174: 04	cmovlq	%rsi, %rax							   |	000000000000016b: 03	cmpq	%rax, %rsi
0000000000000178: 03	negq	%rax								   |	000000000000016e: 02	jl	0x41eff8 <bsl::basic_stringbuf<char, std::__1::char_traits<char>
000000000000017b: 08	leaq	2147483646(%rsi,%rax), %rcx					   |	0000000000000170: 05	movl	$4294967294, %eax
0000000000000183: 10	movabsq	$8589934597, %rdx						   |	0000000000000175: 03	cmpq	%rax, %rsi
000000000000018d: 03	movq	%rcx, %rax							   |	0000000000000178: 04	cmovlq	%rsi, %rax
0000000000000190: 03	mulq	%rdx								   |	000000000000017c: 03	negq	%rax
0000000000000193: 03	subq	%rdx, %rcx							   |	000000000000017f: 08	leaq	2147483646(%rsi,%rax), %rcx
0000000000000196: 03	shrq	%rcx								   |	0000000000000187: 10	movabsq	$8589934597, %rdx
0000000000000199: 03	addq	%rdx, %rcx							   |	0000000000000191: 03	movq	%rcx, %rax
000000000000019c: 04	shrq	$30, %rcx							   |	0000000000000194: 03	mulq	%rdx
00000000000001a0: 03	movq	%rcx, %rdx							   |	0000000000000197: 03	subq	%rdx, %rcx
00000000000001a3: 04	shlq	$31, %rdx							   |	000000000000019a: 03	shrq	%rcx
00000000000001a7: 03	subq	%rcx, %rdx							   |	000000000000019d: 03	addq	%rdx, %rcx
00000000000001aa: 08	leaq	2147483647(%rdx,%r8), %r8					   |	00000000000001a0: 04	shrq	$30, %rcx
00000000000001b2: 03	movq	%rsi, %rax							   |	00000000000001a4: 03	movq	%rcx, %rdx
00000000000001b5: 03	subq	%rdx, %rax							   |	00000000000001a7: 04	shlq	$31, %rdx
00000000000001b8: 06	addq	$-2147483647, %rax						   |	00000000000001ab: 03	subq	%rcx, %rdx
00000000000001be: 04	movq	%r8, 48(%rdi)							   |	00000000000001ae: 08	leaq	2147483647(%rdx,%r8), %r8
00000000000001c2: 02	jmp	0x41efd7 <bsl::basic_stringbuf<char, std::__1::char_traits<char>   |	00000000000001b6: 03	movq	%rsi, %rax
00000000000001c4: 03	movq	%rsi, %rax							   |	00000000000001b9: 03	subq	%rdx, %rax
00000000000001c7: 03	testq	%rax, %rax							   |	00000000000001bc: 06	addq	$-2147483647, %rax
00000000000001ca: 02	je	0x41efe5 <bsl::basic_stringbuf<char, std::__1::char_traits<char>   |	00000000000001c2: 04	movq	%r8, 48(%rdi)
00000000000001cc: 02	cltq									   |	00000000000001c6: 02	jmp	0x41effb <bsl::basic_stringbuf<char, std::__1::char_traits<char>
00000000000001ce: 03	addq	%rax, %r8							   |	00000000000001c8: 03	movq	%rsi, %rax
00000000000001d1: 04	movq	%r8, 48(%rdi)							   |	00000000000001cb: 03	testq	%rax, %rax
00000000000001d5: 03	movq	%rsi, %r8							   |	00000000000001ce: 02	je	0x41f009 <bsl::basic_stringbuf<char, std::__1::char_traits<char>
00000000000001d8: 02	xorl	%eax, %eax							   |	00000000000001d0: 02	cltq	
00000000000001da: 03	movq	%r8, %rdx							   |	00000000000001d2: 03	addq	%rax, %r8
00000000000001dd: 01	retq									   |	00000000000001d5: 04	movq	%r8, 48(%rdi)
00000000000001de: 02	nop									   |	00000000000001d9: 03	movq	%rsi, %r8
												   >	00000000000001dc: 02	xorl	%eax, %eax
												   >	00000000000001de: 03	movq	%r8, %rdx
												   >	00000000000001e1: 01	retq	
												   >	00000000000001e2: 10	nopw	%cs:(%rax,%rax)
												   >	00000000000001ec: 04	nopl	(%rax)
